target datalayout = "e-m:e-p270:32:32-p271:32:32-p272:64:64-i64:64-i128:128-f80:128-n8:16:32:64-S128"
target triple = "x86_64-pc-linux-gnu"

%class.Effect = type <{ %"class.std::vector", %"class.std::vector", %"class.std::vector", i8, i8, [6 x i8] }>
%"class.std::vector" = type { %"struct.std::_Vector_base" }
%"struct.std::_Vector_base" = type { %"struct.std::_Vector_base<const Variable *, std::allocator<const Variable *>>::_Vector_impl" }
%"struct.std::_Vector_base<const Variable *, std::allocator<const Variable *>>::_Vector_impl" = type { %"struct.std::_Vector_base<const Variable *, std::allocator<const Variable *>>::_Vector_impl_data" }
%"struct.std::_Vector_base<const Variable *, std::allocator<const Variable *>>::_Vector_impl_data" = type { ptr, ptr, ptr }

; Function Attrs: mustprogress nounwind uwtable
define linkonce_odr dso_local noundef nonnull align 8 dereferenceable(8) ptr @_ZNKSt6vectorIPK8VariableSaIS2_EEixEm(ptr noundef nonnull align 8 dereferenceable(24) %0, i64 noundef %1) #6 comdat align 2 {
  %3 = alloca ptr, align 8
  %4 = alloca i64, align 8
  store ptr %0, ptr %3, align 8, !tbaa !20
  store i64 %1, ptr %4, align 8, !tbaa !22
  %5 = load ptr, ptr %3, align 8
  %6 = getelementptr inbounds nuw %"struct.std::_Vector_base", ptr %5, i32 0, i32 0
  %7 = getelementptr inbounds nuw %"struct.std::_Vector_base<const Variable *, std::allocator<const Variable *>>::_Vector_impl_data", ptr %6, i32 0, i32 0
  %8 = load ptr, ptr %7, align 8, !tbaa !24
  %9 = load i64, ptr %4, align 8, !tbaa !22
  %10 = getelementptr inbounds nuw ptr, ptr %8, i64 %9
  ret ptr %10
}

; Function Attrs: mustprogress nounwind uwtable
define linkonce_odr dso_local noundef i64 @_ZNKSt6vectorIPK8VariableSaIS2_EE4sizeEv(ptr noundef nonnull align 8 dereferenceable(24) %0) #6 comdat align 2 {
  %2 = alloca ptr, align 8
  store ptr %0, ptr %2, align 8, !tbaa !20
  %3 = load ptr, ptr %2, align 8
  %4 = getelementptr inbounds nuw %"struct.std::_Vector_base", ptr %3, i32 0, i32 0
  %5 = getelementptr inbounds nuw %"struct.std::_Vector_base<const Variable *, std::allocator<const Variable *>>::_Vector_impl_data", ptr %4, i32 0, i32 1
  %6 = load ptr, ptr %5, align 8, !tbaa !25
  %7 = getelementptr inbounds nuw %"struct.std::_Vector_base", ptr %3, i32 0, i32 0
  %8 = getelementptr inbounds nuw %"struct.std::_Vector_base<const Variable *, std::allocator<const Variable *>>::_Vector_impl_data", ptr %7, i32 0, i32 0
  %9 = load ptr, ptr %8, align 8, !tbaa !24
  %10 = ptrtoint ptr %6 to i64
  %11 = ptrtoint ptr %9 to i64
  %12 = sub i64 %10, %11
  %13 = sdiv exact i64 %12, 8
  ret i64 %13
}

; Function Attrs: mustprogress uwtable
define internal noundef zeroext i1 @_ZL22non_empty_intersectionRKSt6vectorIPK8VariableSaIS2_EES6_(ptr noundef nonnull align 8 dereferenceable(24) %0, ptr noundef nonnull align 8 dereferenceable(24) %1) #4 {
  %3 = alloca i1, align 1
  %4 = alloca ptr, align 8
  %5 = alloca ptr, align 8
  %6 = alloca i64, align 8
  %7 = alloca i64, align 8
  %8 = alloca i64, align 8
  %9 = alloca i64, align 8
  %10 = alloca i32, align 4
  store ptr %0, ptr %4, align 8, !tbaa !20
  store ptr %1, ptr %5, align 8, !tbaa !20
  call void @llvm.lifetime.start.p0(i64 8, ptr %6) #3
  %11 = load ptr, ptr %4, align 8, !tbaa !20
  %12 = call noundef i64 @_ZNKSt6vectorIPK8VariableSaIS2_EE4sizeEv(ptr noundef nonnull align 8 dereferenceable(24) %11) #3
  store i64 %12, ptr %6, align 8, !tbaa !22
  call void @llvm.lifetime.start.p0(i64 8, ptr %7) #3
  %13 = load ptr, ptr %5, align 8, !tbaa !20
  %14 = call noundef i64 @_ZNKSt6vectorIPK8VariableSaIS2_EE4sizeEv(ptr noundef nonnull align 8 dereferenceable(24) %13) #3
  store i64 %14, ptr %7, align 8, !tbaa !22
  call void @llvm.lifetime.start.p0(i64 8, ptr %8) #3
  call void @llvm.lifetime.start.p0(i64 8, ptr %9) #3
  store i64 0, ptr %8, align 8, !tbaa !22
  br label %15

15:                                               ; preds = %50, %2
  %16 = load i64, ptr %8, align 8, !tbaa !22
  %17 = load i64, ptr %6, align 8, !tbaa !22
  %18 = icmp ult i64 %16, %17
  br i1 %18, label %19, label %53

19:                                               ; preds = %15
  store i64 0, ptr %9, align 8, !tbaa !22
  br label %20

20:                                               ; preds = %46, %19
  %21 = load i64, ptr %9, align 8, !tbaa !22
  %22 = load i64, ptr %7, align 8, !tbaa !22
  %23 = icmp ult i64 %21, %22
  br i1 %23, label %24, label %49

24:                                               ; preds = %20
  %25 = load ptr, ptr %4, align 8, !tbaa !20
  %26 = load i64, ptr %8, align 8, !tbaa !22
  %27 = call noundef nonnull align 8 dereferenceable(8) ptr @_ZNKSt6vectorIPK8VariableSaIS2_EEixEm(ptr noundef nonnull align 8 dereferenceable(24) %25, i64 noundef %26) #3
  %28 = load ptr, ptr %27, align 8, !tbaa !30
  %29 = load ptr, ptr %5, align 8, !tbaa !20
  %30 = load i64, ptr %9, align 8, !tbaa !22
  %31 = call noundef nonnull align 8 dereferenceable(8) ptr @_ZNKSt6vectorIPK8VariableSaIS2_EEixEm(ptr noundef nonnull align 8 dereferenceable(24) %29, i64 noundef %30) #3
  %32 = load ptr, ptr %31, align 8, !tbaa !30
  %33 = call noundef zeroext i1 @_ZNK8Variable5matchEPKS_(ptr noundef nonnull align 8 dereferenceable(200) %28, ptr noundef %32)
  br i1 %33, label %44, label %34

34:                                               ; preds = %24
  %35 = load ptr, ptr %5, align 8, !tbaa !20
  %36 = load i64, ptr %9, align 8, !tbaa !22
  %37 = call noundef nonnull align 8 dereferenceable(8) ptr @_ZNKSt6vectorIPK8VariableSaIS2_EEixEm(ptr noundef nonnull align 8 dereferenceable(24) %35, i64 noundef %36) #3
  %38 = load ptr, ptr %37, align 8, !tbaa !30
  %39 = load ptr, ptr %4, align 8, !tbaa !20
  %40 = load i64, ptr %8, align 8, !tbaa !22
  %41 = call noundef nonnull align 8 dereferenceable(8) ptr @_ZNKSt6vectorIPK8VariableSaIS2_EEixEm(ptr noundef nonnull align 8 dereferenceable(24) %39, i64 noundef %40) #3
  %42 = load ptr, ptr %41, align 8, !tbaa !30
  %43 = call noundef zeroext i1 @_ZNK8Variable5matchEPKS_(ptr noundef nonnull align 8 dereferenceable(200) %38, ptr noundef %42)
  br i1 %43, label %44, label %45

44:                                               ; preds = %34, %24
  store i1 true, ptr %3, align 1
  store i32 1, ptr %10, align 4
  br label %54

45:                                               ; preds = %34
  br label %46

46:                                               ; preds = %45
  %47 = load i64, ptr %9, align 8, !tbaa !22
  %48 = add i64 %47, 1
  store i64 %48, ptr %9, align 8, !tbaa !22
  br label %20, !llvm.loop !130

49:                                               ; preds = %20
  br label %50

50:                                               ; preds = %49
  %51 = load i64, ptr %8, align 8, !tbaa !22
  %52 = add i64 %51, 1
  store i64 %52, ptr %8, align 8, !tbaa !22
  br label %15, !llvm.loop !131

53:                                               ; preds = %15
  store i1 false, ptr %3, align 1
  store i32 1, ptr %10, align 4
  br label %54

54:                                               ; preds = %53, %44
  call void @llvm.lifetime.end.p0(i64 8, ptr %9) #3
  call void @llvm.lifetime.end.p0(i64 8, ptr %8) #3
  call void @llvm.lifetime.end.p0(i64 8, ptr %7) #3
  call void @llvm.lifetime.end.p0(i64 8, ptr %6) #3
  %55 = load i1, ptr %3, align 1
  ret i1 %55
}

; Function Attrs: mustprogress uwtable
define dso_local noundef zeroext i1 @_ZNK6Effect13has_race_withERKS_(ptr noundef nonnull align 8 dereferenceable(74) %0, ptr noundef nonnull align 8 dereferenceable(74) %1) #4 align 2 {
  %3 = alloca ptr, align 8
  %4 = alloca ptr, align 8
  store ptr %0, ptr %3, align 8, !tbaa !4
  store ptr %1, ptr %4, align 8, !tbaa !4
  %5 = load ptr, ptr %3, align 8
  %6 = getelementptr inbounds nuw %class.Effect, ptr %5, i32 0, i32 0
  %7 = load ptr, ptr %4, align 8, !tbaa !4
  %8 = getelementptr inbounds nuw %class.Effect, ptr %7, i32 0, i32 1
  %9 = call noundef zeroext i1 @_ZL22non_empty_intersectionRKSt6vectorIPK8VariableSaIS2_EES6_(ptr noundef nonnull align 8 dereferenceable(24) %6, ptr noundef nonnull align 8 dereferenceable(24) %8)
  br i1 %9, label %20, label %10

10:                                               ; preds = %2
  %11 = getelementptr inbounds nuw %class.Effect, ptr %5, i32 0, i32 1
  %12 = load ptr, ptr %4, align 8, !tbaa !4
  %13 = getelementptr inbounds nuw %class.Effect, ptr %12, i32 0, i32 0
  %14 = call noundef zeroext i1 @_ZL22non_empty_intersectionRKSt6vectorIPK8VariableSaIS2_EES6_(ptr noundef nonnull align 8 dereferenceable(24) %11, ptr noundef nonnull align 8 dereferenceable(24) %13)
  br i1 %14, label %20, label %15

15:                                               ; preds = %10
  %16 = getelementptr inbounds nuw %class.Effect, ptr %5, i32 0, i32 1
  %17 = load ptr, ptr %4, align 8, !tbaa !4
  %18 = getelementptr inbounds nuw %class.Effect, ptr %17, i32 0, i32 1
  %19 = call noundef zeroext i1 @_ZL22non_empty_intersectionRKSt6vectorIPK8VariableSaIS2_EES6_(ptr noundef nonnull align 8 dereferenceable(24) %16, ptr noundef nonnull align 8 dereferenceable(24) %18)
  br label %20

20:                                               ; preds = %15, %10, %2
  %21 = phi i1 [ true, %10 ], [ true, %2 ], [ %19, %15 ]
  ret i1 %21
}