; Function Attrs: mustprogress uwtable
define dso_local noundef zeroext i1 @_ZNK6Effect13has_race_withERKS_(ptr noundef nonnull readonly align 8 captures(none) dereferenceable(74) %0, ptr noundef nonnull readonly align 8 captures(none) dereferenceable(74) %1) local_unnamed_addr #5 align 2 {
  %3 = getelementptr inbounds nuw i8, ptr %1, i64 24
  %4 = getelementptr inbounds nuw i8, ptr %0, i64 8
  %5 = load ptr, ptr %4, align 8, !tbaa !16
  %6 = load ptr, ptr %0, align 8, !tbaa !17
  %7 = getelementptr inbounds nuw i8, ptr %1, i64 32
  %8 = load ptr, ptr %7, align 8, !tbaa !16
  %9 = load ptr, ptr %3, align 8, !tbaa !17
  %.not.i = icmp eq ptr %5, %6
  %.not23.i = icmp eq ptr %8, %9
  %or.cond.i = select i1 %.not.i, i1 true, i1 %.not23.i
  br i1 %or.cond.i, label %_ZL22non_empty_intersectionRKSt6vectorIPK8VariableSaIS2_EES6_.exit, label %.preheader.us.preheader.i

.preheader.us.preheader.i:                        ; preds = %2
  %10 = ptrtoint ptr %8 to i64
  %11 = ptrtoint ptr %9 to i64
  %12 = sub i64 %10, %11
  %13 = ashr exact i64 %12, 3
  %14 = ptrtoint ptr %5 to i64
  %15 = ptrtoint ptr %6 to i64
  %16 = sub i64 %14, %15
  %17 = ashr exact i64 %16, 3
  %umax.i = tail call i64 @llvm.umax.i64(i64 %13, i64 1)
  %umax26.i = tail call i64 @llvm.umax.i64(i64 %17, i64 1)
  br label %.preheader.us.i

.preheader.us.i:                                  ; preds = %._crit_edge.us.i, %.preheader.us.preheader.i
  %.01621.us.i = phi i64 [ %36, %._crit_edge.us.i ], [ 0, %.preheader.us.preheader.i ]
  br label %20

18:                                               ; preds = %28
  %19 = add nuw i64 %.020.us.i, 1
  %exitcond.not.i = icmp eq i64 %19, %umax.i
  br i1 %exitcond.not.i, label %._crit_edge.us.i, label %20, !llvm.loop !122

20:                                               ; preds = %18, %.preheader.us.i
  %.020.us.i = phi i64 [ 0, %.preheader.us.i ], [ %19, %18 ]
  %21 = load ptr, ptr %0, align 8, !tbaa !17
  %22 = getelementptr inbounds nuw ptr, ptr %21, i64 %.01621.us.i
  %23 = load ptr, ptr %22, align 8, !tbaa !23
  %24 = load ptr, ptr %3, align 8, !tbaa !17
  %25 = getelementptr inbounds nuw ptr, ptr %24, i64 %.020.us.i
  %26 = load ptr, ptr %25, align 8, !tbaa !23
  %27 = tail call noundef zeroext i1 @_ZNK8Variable5matchEPKS_(ptr noundef nonnull align 8 dereferenceable(200) %23, ptr noundef %26)
  br i1 %27, label %_ZL22non_empty_intersectionRKSt6vectorIPK8VariableSaIS2_EES6_.exit29, label %28

28:                                               ; preds = %20
  %29 = load ptr, ptr %3, align 8, !tbaa !17
  %30 = getelementptr inbounds nuw ptr, ptr %29, i64 %.020.us.i
  %31 = load ptr, ptr %30, align 8, !tbaa !23
  %32 = load ptr, ptr %0, align 8, !tbaa !17
  %33 = getelementptr inbounds nuw ptr, ptr %32, i64 %.01621.us.i
  %34 = load ptr, ptr %33, align 8, !tbaa !23
  %35 = tail call noundef zeroext i1 @_ZNK8Variable5matchEPKS_(ptr noundef nonnull align 8 dereferenceable(200) %31, ptr noundef %34)
  br i1 %35, label %_ZL22non_empty_intersectionRKSt6vectorIPK8VariableSaIS2_EES6_.exit29, label %18

._crit_edge.us.i:                                 ; preds = %18
  %36 = add nuw i64 %.01621.us.i, 1
  %exitcond27.not.i = icmp eq i64 %36, %umax26.i
  br i1 %exitcond27.not.i, label %_ZL22non_empty_intersectionRKSt6vectorIPK8VariableSaIS2_EES6_.exit, label %.preheader.us.i, !llvm.loop !123

_ZL22non_empty_intersectionRKSt6vectorIPK8VariableSaIS2_EES6_.exit: ; preds = %._crit_edge.us.i, %2
  %37 = getelementptr inbounds nuw i8, ptr %0, i64 24
  %38 = getelementptr inbounds nuw i8, ptr %0, i64 32
  %39 = load ptr, ptr %38, align 8, !tbaa !16
  %40 = load ptr, ptr %37, align 8, !tbaa !17
  %41 = getelementptr inbounds nuw i8, ptr %1, i64 8
  %42 = load ptr, ptr %41, align 8, !tbaa !16
  %43 = load ptr, ptr %1, align 8, !tbaa !17
  %.not.i4 = icmp eq ptr %39, %40
  %.not23.i5 = icmp eq ptr %42, %43
  %or.cond.i6 = select i1 %.not.i4, i1 true, i1 %.not23.i5
  br i1 %or.cond.i6, label %_ZL22non_empty_intersectionRKSt6vectorIPK8VariableSaIS2_EES6_.exit16, label %.preheader.us.preheader.i7

.preheader.us.preheader.i7:                       ; preds = %_ZL22non_empty_intersectionRKSt6vectorIPK8VariableSaIS2_EES6_.exit
  %44 = ptrtoint ptr %42 to i64
  %45 = ptrtoint ptr %43 to i64
  %46 = sub i64 %44, %45
  %47 = ashr exact i64 %46, 3
  %48 = ptrtoint ptr %39 to i64
  %49 = ptrtoint ptr %40 to i64
  %50 = sub i64 %48, %49
  %51 = ashr exact i64 %50, 3
  %umax.i8 = tail call i64 @llvm.umax.i64(i64 %47, i64 1)
  %umax26.i9 = tail call i64 @llvm.umax.i64(i64 %51, i64 1)
  br label %.preheader.us.i10

.preheader.us.i10:                                ; preds = %._crit_edge.us.i14, %.preheader.us.preheader.i7
  %.01621.us.i11 = phi i64 [ %70, %._crit_edge.us.i14 ], [ 0, %.preheader.us.preheader.i7 ]
  br label %54

52:                                               ; preds = %62
  %53 = add nuw i64 %.020.us.i12, 1
  %exitcond.not.i13 = icmp eq i64 %53, %umax.i8
  br i1 %exitcond.not.i13, label %._crit_edge.us.i14, label %54, !llvm.loop !122

54:                                               ; preds = %52, %.preheader.us.i10
  %.020.us.i12 = phi i64 [ 0, %.preheader.us.i10 ], [ %53, %52 ]
  %55 = load ptr, ptr %37, align 8, !tbaa !17
  %56 = getelementptr inbounds nuw ptr, ptr %55, i64 %.01621.us.i11
  %57 = load ptr, ptr %56, align 8, !tbaa !23
  %58 = load ptr, ptr %1, align 8, !tbaa !17
  %59 = getelementptr inbounds nuw ptr, ptr %58, i64 %.020.us.i12
  %60 = load ptr, ptr %59, align 8, !tbaa !23
  %61 = tail call noundef zeroext i1 @_ZNK8Variable5matchEPKS_(ptr noundef nonnull align 8 dereferenceable(200) %57, ptr noundef %60)
  br i1 %61, label %_ZL22non_empty_intersectionRKSt6vectorIPK8VariableSaIS2_EES6_.exit29, label %62

62:                                               ; preds = %54
  %63 = load ptr, ptr %1, align 8, !tbaa !17
  %64 = getelementptr inbounds nuw ptr, ptr %63, i64 %.020.us.i12
  %65 = load ptr, ptr %64, align 8, !tbaa !23
  %66 = load ptr, ptr %37, align 8, !tbaa !17
  %67 = getelementptr inbounds nuw ptr, ptr %66, i64 %.01621.us.i11
  %68 = load ptr, ptr %67, align 8, !tbaa !23
  %69 = tail call noundef zeroext i1 @_ZNK8Variable5matchEPKS_(ptr noundef nonnull align 8 dereferenceable(200) %65, ptr noundef %68)
  br i1 %69, label %_ZL22non_empty_intersectionRKSt6vectorIPK8VariableSaIS2_EES6_.exit29, label %52

._crit_edge.us.i14:                               ; preds = %52
  %70 = add nuw i64 %.01621.us.i11, 1
  %exitcond27.not.i15 = icmp eq i64 %70, %umax26.i9
  br i1 %exitcond27.not.i15, label %_ZL22non_empty_intersectionRKSt6vectorIPK8VariableSaIS2_EES6_.exit16.loopexit, label %.preheader.us.i10, !llvm.loop !123

_ZL22non_empty_intersectionRKSt6vectorIPK8VariableSaIS2_EES6_.exit16.loopexit: ; preds = %._crit_edge.us.i14
  %.pre = load ptr, ptr %38, align 8, !tbaa !16
  %.pre36 = load ptr, ptr %37, align 8, !tbaa !17
  br label %_ZL22non_empty_intersectionRKSt6vectorIPK8VariableSaIS2_EES6_.exit16

_ZL22non_empty_intersectionRKSt6vectorIPK8VariableSaIS2_EES6_.exit16: ; preds = %_ZL22non_empty_intersectionRKSt6vectorIPK8VariableSaIS2_EES6_.exit16.loopexit, %_ZL22non_empty_intersectionRKSt6vectorIPK8VariableSaIS2_EES6_.exit
  %71 = phi ptr [ %.pre36, %_ZL22non_empty_intersectionRKSt6vectorIPK8VariableSaIS2_EES6_.exit16.loopexit ], [ %40, %_ZL22non_empty_intersectionRKSt6vectorIPK8VariableSaIS2_EES6_.exit ]
  %72 = phi ptr [ %.pre, %_ZL22non_empty_intersectionRKSt6vectorIPK8VariableSaIS2_EES6_.exit16.loopexit ], [ %39, %_ZL22non_empty_intersectionRKSt6vectorIPK8VariableSaIS2_EES6_.exit ]
  %73 = load ptr, ptr %7, align 8, !tbaa !16
  %74 = load ptr, ptr %3, align 8, !tbaa !17
  %.not.i17 = icmp eq ptr %72, %71
  %.not23.i18 = icmp eq ptr %73, %74
  %or.cond.i19 = select i1 %.not.i17, i1 true, i1 %.not23.i18
  br i1 %or.cond.i19, label %_ZL22non_empty_intersectionRKSt6vectorIPK8VariableSaIS2_EES6_.exit29, label %.preheader.us.preheader.i20

.preheader.us.preheader.i20:                      ; preds = %_ZL22non_empty_intersectionRKSt6vectorIPK8VariableSaIS2_EES6_.exit16
  %75 = ptrtoint ptr %73 to i64
  %76 = ptrtoint ptr %74 to i64
  %77 = sub i64 %75, %76
  %78 = ashr exact i64 %77, 3
  %79 = ptrtoint ptr %72 to i64
  %80 = ptrtoint ptr %71 to i64
  %81 = sub i64 %79, %80
  %82 = ashr exact i64 %81, 3
  %umax.i21 = tail call i64 @llvm.umax.i64(i64 %78, i64 1)
  %umax26.i22 = tail call i64 @llvm.umax.i64(i64 %82, i64 1)
  br label %.preheader.us.i23

.preheader.us.i23:                                ; preds = %._crit_edge.us.i27, %.preheader.us.preheader.i20
  %.01621.us.i24 = phi i64 [ %101, %._crit_edge.us.i27 ], [ 0, %.preheader.us.preheader.i20 ]
  br label %85

83:                                               ; preds = %93
  %84 = add nuw i64 %.020.us.i25, 1
  %exitcond.not.i26 = icmp eq i64 %84, %umax.i21
  br i1 %exitcond.not.i26, label %._crit_edge.us.i27, label %85, !llvm.loop !122

85:                                               ; preds = %83, %.preheader.us.i23
  %.020.us.i25 = phi i64 [ 0, %.preheader.us.i23 ], [ %84, %83 ]
  %86 = load ptr, ptr %37, align 8, !tbaa !17
  %87 = getelementptr inbounds nuw ptr, ptr %86, i64 %.01621.us.i24
  %88 = load ptr, ptr %87, align 8, !tbaa !23
  %89 = load ptr, ptr %3, align 8, !tbaa !17
  %90 = getelementptr inbounds nuw ptr, ptr %89, i64 %.020.us.i25
  %91 = load ptr, ptr %90, align 8, !tbaa !23
  %92 = tail call noundef zeroext i1 @_ZNK8Variable5matchEPKS_(ptr noundef nonnull align 8 dereferenceable(200) %88, ptr noundef %91)
  br i1 %92, label %_ZL22non_empty_intersectionRKSt6vectorIPK8VariableSaIS2_EES6_.exit29, label %93

93:                                               ; preds = %85
  %94 = load ptr, ptr %3, align 8, !tbaa !17
  %95 = getelementptr inbounds nuw ptr, ptr %94, i64 %.020.us.i25
  %96 = load ptr, ptr %95, align 8, !tbaa !23
  %97 = load ptr, ptr %37, align 8, !tbaa !17
  %98 = getelementptr inbounds nuw ptr, ptr %97, i64 %.01621.us.i24
  %99 = load ptr, ptr %98, align 8, !tbaa !23
  %100 = tail call noundef zeroext i1 @_ZNK8Variable5matchEPKS_(ptr noundef nonnull align 8 dereferenceable(200) %96, ptr noundef %99)
  br i1 %100, label %_ZL22non_empty_intersectionRKSt6vectorIPK8VariableSaIS2_EES6_.exit29, label %83

._crit_edge.us.i27:                               ; preds = %83
  %101 = add nuw i64 %.01621.us.i24, 1
  %exitcond27.not.i28 = icmp eq i64 %101, %umax26.i22
  br i1 %exitcond27.not.i28, label %_ZL22non_empty_intersectionRKSt6vectorIPK8VariableSaIS2_EES6_.exit29, label %.preheader.us.i23, !llvm.loop !123

_ZL22non_empty_intersectionRKSt6vectorIPK8VariableSaIS2_EES6_.exit29: ; preds = %28, %20, %62, %54, %._crit_edge.us.i27, %93, %85, %_ZL22non_empty_intersectionRKSt6vectorIPK8VariableSaIS2_EES6_.exit16
  %102 = phi i1 [ false, %_ZL22non_empty_intersectionRKSt6vectorIPK8VariableSaIS2_EES6_.exit16 ], [ true, %85 ], [ true, %93 ], [ false, %._crit_edge.us.i27 ], [ true, %54 ], [ true, %62 ], [ true, %20 ], [ true, %28 ]
  ret i1 %102
}